target datalayout = "e-m:e-p270:32:32-p271:32:32-p272:64:64-i64:64-i128:128-f80:128-n8:16:32:64-S128"
target triple = "x86_64-pc-linux-gnu"

%"class.OpenSubdiv::v3_6_0::Bfr::FaceSurface" = type <{ ptr, ptr, %"class.OpenSubdiv::v3_6_0::Vtr::internal::StackBuffer.0", %"class.OpenSubdiv::v3_6_0::Bfr::MultiVertexTag", %"class.OpenSubdiv::v3_6_0::Sdc::Options", i8, i8 }>
%"class.OpenSubdiv::v3_6_0::Vtr::internal::StackBuffer.0" = type { ptr, i32, i32, [96 x i8], ptr }
%"class.OpenSubdiv::v3_6_0::Bfr::MultiVertexTag" = type { %"class.OpenSubdiv::v3_6_0::Bfr::FeatureBits" }
%"class.OpenSubdiv::v3_6_0::Bfr::FeatureBits" = type { i16 }
%"class.OpenSubdiv::v3_6_0::Sdc::Options" = type { i8, i8, i8, i8 }
%"class.OpenSubdiv::v3_6_0::Bfr::FaceTopology" = type { i32, %"class.OpenSubdiv::v3_6_0::Sdc::Options", i32, i32, i32, %"class.OpenSubdiv::v3_6_0::Bfr::MultiVertexTag", i8, %"class.OpenSubdiv::v3_6_0::Vtr::internal::StackBuffer" }
%"class.OpenSubdiv::v3_6_0::Vtr::internal::StackBuffer" = type { ptr, i32, i32, [896 x i8], ptr }

; Function Attrs: mustprogress nounwind uwtable
define linkonce_odr void @_ZN10OpenSubdiv6v3_6_03Bfr11FeatureBits7SetBitsEt(ptr noundef nonnull align 2 dereferenceable(2) %0, i16 noundef zeroext %1) #1 comdat align 2 {
  %3 = alloca ptr, align 8
  %4 = alloca i16, align 2
  store ptr %0, ptr %3, align 8
  store i16 %1, ptr %4, align 2
  %5 = load ptr, ptr %3, align 8
  call void @llvm.memcpy.p0.p0.i64(ptr align 2 %5, ptr align 2 %4, i64 2, i1 false)
  ret void
}

; Function Attrs: mustprogress uwtable
define linkonce_odr void @_ZN10OpenSubdiv6v3_6_03Vtr8internal11StackBufferINS0_3Bfr16FaceVertexSubsetELj8ELb1EE8allocateEj(ptr noundef nonnull align 8 dereferenceable(120) %0, i32 noundef %1) #0 comdat align 2 {
  %3 = alloca ptr, align 8
  %4 = alloca i32, align 4
  store ptr %0, ptr %3, align 8
  store i32 %1, ptr %4, align 4
  %5 = load ptr, ptr %3, align 8
  %6 = load i32, ptr %4, align 4
  %7 = zext i32 %6 to i64
  %8 = mul i64 %7, 12
  %9 = call noalias noundef nonnull ptr @_Znwm(i64 noundef %8) #7
  %10 = getelementptr inbounds nuw %"class.OpenSubdiv::v3_6_0::Vtr::internal::StackBuffer.0", ptr %5, i32 0, i32 4
  store ptr %9, ptr %10, align 8
  %11 = getelementptr inbounds nuw %"class.OpenSubdiv::v3_6_0::Vtr::internal::StackBuffer.0", ptr %5, i32 0, i32 4
  %12 = load ptr, ptr %11, align 8
  %13 = getelementptr inbounds nuw %"class.OpenSubdiv::v3_6_0::Vtr::internal::StackBuffer.0", ptr %5, i32 0, i32 0
  store ptr %12, ptr %13, align 8
  %14 = load i32, ptr %4, align 4
  %15 = getelementptr inbounds nuw %"class.OpenSubdiv::v3_6_0::Vtr::internal::StackBuffer.0", ptr %5, i32 0, i32 2
  store i32 %14, ptr %15, align 4
  ret void
}

; Function Attrs: mustprogress nounwind uwtable
define linkonce_odr void @_ZN10OpenSubdiv6v3_6_03Vtr8internal11StackBufferINS0_3Bfr16FaceVertexSubsetELj8ELb1EE10deallocateEv(ptr noundef nonnull align 8 dereferenceable(120) %0) #1 comdat align 2 {
  %2 = alloca ptr, align 8
  store ptr %0, ptr %2, align 8
  %3 = load ptr, ptr %2, align 8
  %4 = getelementptr inbounds nuw %"class.OpenSubdiv::v3_6_0::Vtr::internal::StackBuffer.0", ptr %3, i32 0, i32 4
  %5 = load ptr, ptr %4, align 8
  call void @_ZdlPv(ptr noundef %5) #6
  %6 = getelementptr inbounds nuw %"class.OpenSubdiv::v3_6_0::Vtr::internal::StackBuffer.0", ptr %3, i32 0, i32 3
  %7 = getelementptr inbounds [96 x i8], ptr %6, i64 0, i64 0
  %8 = getelementptr inbounds nuw %"class.OpenSubdiv::v3_6_0::Vtr::internal::StackBuffer.0", ptr %3, i32 0, i32 0
  store ptr %7, ptr %8, align 8
  %9 = getelementptr inbounds nuw %"class.OpenSubdiv::v3_6_0::Vtr::internal::StackBuffer.0", ptr %3, i32 0, i32 2
  store i32 8, ptr %9, align 4
  ret void
}

; Function Attrs: mustprogress nounwind uwtable
define linkonce_odr noundef i32 @_ZNK10OpenSubdiv6v3_6_03Bfr12FaceTopology11GetFaceSizeEv(ptr noundef nonnull align 8 dereferenceable(944) %0) #1 comdat align 2 {
  %2 = alloca ptr, align 8
  store ptr %0, ptr %2, align 8
  %3 = load ptr, ptr %2, align 8
  %4 = getelementptr inbounds nuw %"class.OpenSubdiv::v3_6_0::Bfr::FaceTopology", ptr %3, i32 0, i32 2
  %5 = load i32, ptr %4, align 8
  ret i32 %5
}

; Function Attrs: mustprogress uwtable
define linkonce_odr void @_ZN10OpenSubdiv6v3_6_03Bfr11FeatureBits5ClearEv(ptr noundef nonnull align 2 dereferenceable(2) %0) #0 comdat align 2 {
  %2 = alloca ptr, align 8
  store ptr %0, ptr %2, align 8
  %3 = load ptr, ptr %2, align 8
  call void @_ZN10OpenSubdiv6v3_6_03Bfr11FeatureBits7SetBitsEt(ptr noundef nonnull align 2 dereferenceable(2) %3, i16 noundef zeroext 0)
  ret void
}

; Function Attrs: mustprogress uwtable
define linkonce_odr void @_ZN10OpenSubdiv6v3_6_03Vtr8internal11StackBufferINS0_3Bfr16FaceVertexSubsetELj8ELb1EE7SetSizeEj(ptr noundef nonnull align 8 dereferenceable(120) %0, i32 noundef %1) #0 comdat align 2 {
  %3 = alloca ptr, align 8
  %4 = alloca i32, align 4
  store ptr %0, ptr %3, align 8
  store i32 %1, ptr %4, align 4
  %5 = load ptr, ptr %3, align 8
  %6 = load i32, ptr %4, align 4
  %7 = icmp eq i32 %6, 0
  br i1 %7, label %8, label %9

8:                                                ; preds = %2
  call void @_ZN10OpenSubdiv6v3_6_03Vtr8internal11StackBufferINS0_3Bfr16FaceVertexSubsetELj8ELb1EE10deallocateEv(ptr noundef nonnull align 8 dereferenceable(120) %5)
  br label %17

9:                                                ; preds = %2
  %10 = load i32, ptr %4, align 4
  %11 = getelementptr inbounds nuw %"class.OpenSubdiv::v3_6_0::Vtr::internal::StackBuffer.0", ptr %5, i32 0, i32 2
  %12 = load i32, ptr %11, align 4
  %13 = icmp ugt i32 %10, %12
  br i1 %13, label %14, label %16

14:                                               ; preds = %9
  call void @_ZN10OpenSubdiv6v3_6_03Vtr8internal11StackBufferINS0_3Bfr16FaceVertexSubsetELj8ELb1EE10deallocateEv(ptr noundef nonnull align 8 dereferenceable(120) %5)
  %15 = load i32, ptr %4, align 4
  call void @_ZN10OpenSubdiv6v3_6_03Vtr8internal11StackBufferINS0_3Bfr16FaceVertexSubsetELj8ELb1EE8allocateEj(ptr noundef nonnull align 8 dereferenceable(120) %5, i32 noundef %15)
  br label %16

16:                                               ; preds = %14, %9
  br label %17

17:                                               ; preds = %16, %8
  %18 = load i32, ptr %4, align 4
  %19 = getelementptr inbounds nuw %"class.OpenSubdiv::v3_6_0::Vtr::internal::StackBuffer.0", ptr %5, i32 0, i32 1
  store i32 %18, ptr %19, align 8
  ret void
}

; Function Attrs: mustprogress uwtable
define linkonce_odr noundef i32 @_ZNK10OpenSubdiv6v3_6_03Bfr11FaceSurface11GetFaceSizeEv(ptr noundef nonnull align 8 dereferenceable(143) %0) #0 comdat align 2 {
  %2 = alloca ptr, align 8
  store ptr %0, ptr %2, align 8
  %3 = load ptr, ptr %2, align 8
  %4 = getelementptr inbounds nuw %"class.OpenSubdiv::v3_6_0::Bfr::FaceSurface", ptr %3, i32 0, i32 0
  %5 = load ptr, ptr %4, align 8
  %6 = call noundef i32 @_ZNK10OpenSubdiv6v3_6_03Bfr12FaceTopology11GetFaceSizeEv(ptr noundef nonnull align 8 dereferenceable(944) %5)
  ret i32 %6
}

; Function Attrs: mustprogress uwtable
define void @_ZN10OpenSubdiv6v3_6_03Bfr11FaceSurface13preInitializeERKNS1_12FaceTopologyEPKi(ptr noundef nonnull align 8 dereferenceable(143) %0, ptr noundef nonnull align 8 dereferenceable(944) %1, ptr noundef %2) #0 align 2 {
  %4 = alloca ptr, align 8
  %5 = alloca ptr, align 8
  %6 = alloca ptr, align 8
  store ptr %0, ptr %4, align 8
  store ptr %1, ptr %5, align 8
  store ptr %2, ptr %6, align 8
  %7 = load ptr, ptr %4, align 8
  %8 = load ptr, ptr %5, align 8
  %9 = getelementptr inbounds nuw %"class.OpenSubdiv::v3_6_0::Bfr::FaceSurface", ptr %7, i32 0, i32 0
  store ptr %8, ptr %9, align 8
  %10 = load ptr, ptr %6, align 8
  %11 = getelementptr inbounds nuw %"class.OpenSubdiv::v3_6_0::Bfr::FaceSurface", ptr %7, i32 0, i32 1
  store ptr %10, ptr %11, align 8
  %12 = getelementptr inbounds nuw %"class.OpenSubdiv::v3_6_0::Bfr::FaceSurface", ptr %7, i32 0, i32 5
  %13 = load i8, ptr %12, align 2
  %14 = and i8 %13, -2
  %15 = or i8 %14, 0
  store i8 %15, ptr %12, align 2
  %16 = getelementptr inbounds nuw %"class.OpenSubdiv::v3_6_0::Bfr::FaceSurface", ptr %7, i32 0, i32 5
  %17 = load i8, ptr %16, align 2
  %18 = and i8 %17, -3
  %19 = or i8 %18, 0
  store i8 %19, ptr %16, align 2
  %20 = getelementptr inbounds nuw %"class.OpenSubdiv::v3_6_0::Bfr::FaceSurface", ptr %7, i32 0, i32 2
  %21 = call noundef i32 @_ZNK10OpenSubdiv6v3_6_03Bfr11FaceSurface11GetFaceSizeEv(ptr noundef nonnull align 8 dereferenceable(143) %7)
  call void @_ZN10OpenSubdiv6v3_6_03Vtr8internal11StackBufferINS0_3Bfr16FaceVertexSubsetELj8ELb1EE7SetSizeEj(ptr noundef nonnull align 8 dereferenceable(120) %20, i32 noundef %21)
  %22 = getelementptr inbounds nuw %"class.OpenSubdiv::v3_6_0::Bfr::FaceSurface", ptr %7, i32 0, i32 3
  call void @_ZN10OpenSubdiv6v3_6_03Bfr11FeatureBits5ClearEv(ptr noundef nonnull align 2 dereferenceable(2) %22)
  ret void
}