; Function Attrs: mustprogress uwtable
define void @_ZN10OpenSubdiv6v3_6_03Bfr11FaceSurface13preInitializeERKNS1_12FaceTopologyEPKi(ptr noundef nonnull align 8 dereferenceable(143) %0, ptr noundef nonnull align 8 dereferenceable(944) %1, ptr noundef %2) local_unnamed_addr #0 align 2 {
  store ptr %1, ptr %0, align 8
  %4 = getelementptr inbounds nuw i8, ptr %0, i64 8
  store ptr %2, ptr %4, align 8
  %5 = getelementptr inbounds nuw i8, ptr %0, i64 142
  %6 = load i8, ptr %5, align 2
  %7 = and i8 %6, -4
  store i8 %7, ptr %5, align 2
  %8 = getelementptr inbounds nuw i8, ptr %0, i64 16
  %9 = getelementptr inbounds nuw i8, ptr %1, i64 8
  %10 = load i32, ptr %9, align 8
  %11 = icmp eq i32 %10, 0
  br i1 %11, label %12, label %17

12:                                               ; preds = %3
  %13 = getelementptr inbounds i8, ptr %0, i64 128
  %14 = load ptr, ptr %13, align 8
  tail call void @_ZdlPv(ptr noundef %14) #11
  %15 = getelementptr inbounds i8, ptr %0, i64 32
  store ptr %15, ptr %8, align 8
  %16 = getelementptr inbounds i8, ptr %0, i64 28
  store i32 8, ptr %16, align 4
  br label %_ZN10OpenSubdiv6v3_6_03Vtr8internal11StackBufferINS0_3Bfr16FaceVertexSubsetELj8ELb1EE7SetSizeEj.exit

17:                                               ; preds = %3
  %18 = getelementptr inbounds i8, ptr %0, i64 28
  %19 = load i32, ptr %18, align 4
  %20 = icmp ugt i32 %10, %19
  br i1 %20, label %21, label %_ZN10OpenSubdiv6v3_6_03Vtr8internal11StackBufferINS0_3Bfr16FaceVertexSubsetELj8ELb1EE7SetSizeEj.exit

21:                                               ; preds = %17
  %22 = getelementptr inbounds i8, ptr %0, i64 128
  %23 = load ptr, ptr %22, align 8
  tail call void @_ZdlPv(ptr noundef %23) #11
  %24 = getelementptr inbounds i8, ptr %0, i64 32
  store ptr %24, ptr %8, align 8
  store i32 8, ptr %18, align 4
  %25 = zext i32 %10 to i64
  %26 = mul nuw nsw i64 %25, 12
  %27 = tail call noalias noundef nonnull ptr @_Znwm(i64 noundef %26) #12
  store ptr %27, ptr %22, align 8
  store ptr %27, ptr %8, align 8
  store i32 %10, ptr %18, align 4
  br label %_ZN10OpenSubdiv6v3_6_03Vtr8internal11StackBufferINS0_3Bfr16FaceVertexSubsetELj8ELb1EE7SetSizeEj.exit

_ZN10OpenSubdiv6v3_6_03Vtr8internal11StackBufferINS0_3Bfr16FaceVertexSubsetELj8ELb1EE7SetSizeEj.exit: ; preds = %12, %17, %21
  %28 = getelementptr inbounds i8, ptr %0, i64 24
  store i32 %10, ptr %28, align 8
  %29 = getelementptr inbounds nuw i8, ptr %0, i64 136
  store i16 0, ptr %29, align 8
  ret void
}